target datalayout = "e-m:e-p270:32:32-p271:32:32-p272:64:64-i64:64-i128:128-f80:128-n8:16:32:64-S128"
target triple = "x86_64-pc-linux-gnu"

%struct.__va_list_tag = type { i32, i32, ptr, ptr }

; Function Attrs: mustprogress uwtable
define void @umsg_parse_77(ptr noundef %0, ptr noundef %1, i32 noundef %2, ptr noundef %3, ptr noundef %4, ...) #0 {
  %6 = alloca ptr, align 8
  %7 = alloca ptr, align 8
  %8 = alloca i32, align 4
  %9 = alloca ptr, align 8
  %10 = alloca ptr, align 8
  %11 = alloca [1 x %struct.__va_list_tag], align 16
  store ptr %0, ptr %6, align 8, !tbaa !43
  store ptr %1, ptr %7, align 8, !tbaa !38
  store i32 %2, ptr %8, align 4, !tbaa !35
  store ptr %3, ptr %9, align 8, !tbaa !8
  store ptr %4, ptr %10, align 8, !tbaa !40
  call void @llvm.lifetime.start.p0(i64 24, ptr %11) #13
  %12 = getelementptr inbounds [1 x %struct.__va_list_tag], ptr %11, i64 0, i64 0
  call void @llvm.va_start.p0(ptr %12)
  %13 = load ptr, ptr %6, align 8, !tbaa !43
  %14 = load ptr, ptr %7, align 8, !tbaa !38
  %15 = load i32, ptr %8, align 4, !tbaa !35
  %16 = load ptr, ptr %9, align 8, !tbaa !8
  %17 = getelementptr inbounds [1 x %struct.__va_list_tag], ptr %11, i64 0, i64 0
  %18 = load ptr, ptr %10, align 8, !tbaa !40
  call void @umsg_vparse_77(ptr noundef %13, ptr noundef %14, i32 noundef %15, ptr noundef %16, ptr noundef %17, ptr noundef %18)
  %19 = getelementptr inbounds [1 x %struct.__va_list_tag], ptr %11, i64 0, i64 0
  call void @llvm.va_end.p0(ptr %19)
  call void @llvm.lifetime.end.p0(i64 24, ptr %11) #13
  ret void
}