; Function Attrs: mustprogress uwtable
define void @umsg_parse_77(ptr noundef %0, ptr noundef %1, i32 noundef %2, ptr noundef %3, ptr noundef %4, ...) local_unnamed_addr #1 {
  %6 = alloca [1 x %struct.__va_list_tag], align 16
  call void @llvm.lifetime.start.p0(i64 24, ptr nonnull %6) #10
  call void @llvm.va_start.p0(ptr nonnull %6)
  call void @umsg_vparse_77(ptr noundef %0, ptr noundef %1, i32 noundef %2, ptr noundef %3, ptr noundef nonnull %6, ptr noundef %4)
  call void @llvm.va_end.p0(ptr nonnull %6)
  call void @llvm.lifetime.end.p0(i64 24, ptr nonnull %6) #10
  ret void
}